; Function Attrs: nofree nounwind uwtable
define internal noalias noundef ptr @textfont_makef(ptr noundef readonly captures(none) %0, ptr readnone captures(none) %1) #4 {
  %3 = tail call noalias dereferenceable_or_null(40) ptr @calloc(i64 noundef 1, i64 noundef 40) #19
  %4 = icmp eq ptr %3, null
  br i1 %4, label %5, label %gv_alloc.exit

5:                                                ; preds = %2
  %6 = load ptr, ptr @stderr, align 8, !tbaa !18
  %7 = tail call i32 (ptr, ptr, ...) @fprintf(ptr noundef %6, ptr noundef nonnull @.str.2, i64 noundef 40) #17
  tail call fastcc void @graphviz_exit() #18
  unreachable

gv_alloc.exit:                                    ; preds = %2
  %8 = load ptr, ptr %0, align 8, !tbaa !16
  %.not = icmp eq ptr %8, null
  br i1 %.not, label %17, label %9

9:                                                ; preds = %gv_alloc.exit
  %10 = tail call noalias ptr @strdup(ptr noundef nonnull readonly %8) #15
  %11 = icmp eq ptr %10, null
  br i1 %11, label %12, label %gv_strdup.exit

12:                                               ; preds = %9
  %13 = load ptr, ptr @stderr, align 8, !tbaa !18
  %14 = tail call i64 @strlen(ptr noundef nonnull readonly dereferenceable(1) %8) #16
  %15 = add i64 %14, 1
  %16 = tail call i32 (ptr, ptr, ...) @fprintf(ptr noundef %13, ptr noundef nonnull @.str.2, i64 noundef %15) #17
  tail call fastcc void @graphviz_exit() #18
  unreachable

gv_strdup.exit:                                   ; preds = %9
  store ptr %10, ptr %3, align 8, !tbaa !16
  br label %17

17:                                               ; preds = %gv_strdup.exit, %gv_alloc.exit
  %18 = getelementptr inbounds nuw i8, ptr %0, i64 8
  %19 = load ptr, ptr %18, align 8, !tbaa !58
  %.not15 = icmp eq ptr %19, null
  br i1 %.not15, label %29, label %20

20:                                               ; preds = %17
  %21 = tail call noalias ptr @strdup(ptr noundef nonnull readonly %19) #15
  %22 = icmp eq ptr %21, null
  br i1 %22, label %23, label %gv_strdup.exit16

23:                                               ; preds = %20
  %24 = load ptr, ptr @stderr, align 8, !tbaa !18
  %25 = tail call i64 @strlen(ptr noundef nonnull readonly dereferenceable(1) %19) #16
  %26 = add i64 %25, 1
  %27 = tail call i32 (ptr, ptr, ...) @fprintf(ptr noundef %24, ptr noundef nonnull @.str.2, i64 noundef %26) #17
  tail call fastcc void @graphviz_exit() #18
  unreachable

gv_strdup.exit16:                                 ; preds = %20
  %28 = getelementptr inbounds nuw i8, ptr %3, i64 8
  store ptr %21, ptr %28, align 8, !tbaa !58
  br label %29

29:                                               ; preds = %gv_strdup.exit16, %17
  %30 = getelementptr inbounds nuw i8, ptr %0, i64 32
  %31 = load i32, ptr %30, align 8
  %32 = and i32 %31, 127
  %33 = getelementptr inbounds nuw i8, ptr %3, i64 32
  store i32 %32, ptr %33, align 8
  %34 = getelementptr inbounds nuw i8, ptr %0, i64 24
  %35 = load double, ptr %34, align 8, !tbaa !25
  %36 = getelementptr inbounds nuw i8, ptr %3, i64 24
  store double %35, ptr %36, align 8, !tbaa !25
  %37 = getelementptr inbounds nuw i8, ptr %0, i64 16
  %38 = load ptr, ptr %37, align 8, !tbaa !12
  %39 = getelementptr inbounds nuw i8, ptr %3, i64 16
  store ptr %38, ptr %39, align 8, !tbaa !12
  ret ptr %3
}